target datalayout = "e-m:e-p270:32:32-p271:32:32-p272:64:64-i64:64-i128:128-f80:128-n8:16:32:64-S128"
target triple = "x86_64-pc-linux-gnu"

%class.QString = type { %struct.QArrayDataPointer.0 }
%struct.QArrayDataPointer.0 = type { ptr, ptr, i64 }
%class.LteMacStatisticsDialog = type <{ %class.TapParameterDialog, ptr, ptr, ptr, ptr, ptr, %class.QString, %struct.mac_3gpp_common_stats, i8, [7 x i8] }>
%class.TapParameterDialog = type { %class.WiresharkDialog.base, ptr, %class.QMenu, %class.QList.5, i32, ptr }
%class.WiresharkDialog.base = type <{ %class.GeometryStateDialog, ptr, i8, [7 x i8], %class.QString, %class.QList.1, i32, i8 }>
%class.GeometryStateDialog = type { %class.QDialog, %class.QString }
%class.QDialog = type { %class.QWidget }
%class.QWidget = type { %class.QObject, %class.QPaintDevice.base, ptr }
%class.QObject = type { ptr, %class.QScopedPointer }
%class.QScopedPointer = type { ptr }
%class.QPaintDevice.base = type <{ ptr, i16 }>
%class.QList.1 = type { %struct.QArrayDataPointer.4 }
%struct.QArrayDataPointer.4 = type { ptr, ptr, i64 }
%class.QMenu = type { %class.QWidget }
%class.QList.5 = type { %struct.QArrayDataPointer.8 }
%struct.QArrayDataPointer.8 = type { ptr, ptr, i64 }
%struct.mac_3gpp_common_stats = type { i32, i32, i32, i32, i32, i32, i32, i32, i32, i16, i16 }

; Function Attrs: mustprogress nounwind uwtable
define void @_ZN22LteMacStatisticsDialog16clearCommonStatsEv(ptr noundef nonnull align 8 dereferenceable(329) %0) #2 align 2 {
  %2 = alloca ptr, align 8
  store ptr %0, ptr %2, align 8
  %3 = load ptr, ptr %2, align 8
  %4 = getelementptr inbounds %class.LteMacStatisticsDialog, ptr %3, i32 0, i32 7
  call void @llvm.memset.p0.i64(ptr align 8 %4, i8 0, i64 40, i1 false)
  ret void
}

; Function Attrs: mustprogress uwtable
define void @_ZN22LteMacStatisticsDialog8tapResetEPv(ptr noundef %0) #3 align 2 {
  %2 = alloca ptr, align 8
  %3 = alloca ptr, align 8
  store ptr %0, ptr %2, align 8
  %4 = load ptr, ptr %2, align 8
  store ptr %4, ptr %3, align 8
  %5 = load ptr, ptr %3, align 8
  %6 = icmp ne ptr %5, null
  br i1 %6, label %8, label %7

7:                                                ; preds = %1
  br label %12

8:                                                ; preds = %1
  %9 = load ptr, ptr %3, align 8
  %10 = call noundef ptr @_ZN18TapParameterDialog15statsTreeWidgetEv(ptr noundef nonnull align 8 dereferenceable(224) %9)
  call void @_ZN11QTreeWidget5clearEv(ptr noundef nonnull align 8 dereferenceable(40) %10)
  %11 = load ptr, ptr %3, align 8
  call void @_ZN22LteMacStatisticsDialog16clearCommonStatsEv(ptr noundef nonnull align 8 dereferenceable(329) %11)
  br label %12

12:                                               ; preds = %8, %7
  ret void
}