; Function Attrs: mustprogress uwtable
define void @_ZN22LteMacStatisticsDialog8tapResetEPv(ptr noundef %0) #3 align 2 {
  %.not = icmp eq ptr %0, null
  br i1 %.not, label %5, label %2

2:                                                ; preds = %1
  %3 = tail call noundef ptr @_ZN18TapParameterDialog15statsTreeWidgetEv(ptr noundef nonnull align 8 dereferenceable(224) %0)
  tail call void @_ZN11QTreeWidget5clearEv(ptr noundef nonnull align 8 dereferenceable(40) %3)
  %4 = getelementptr inbounds i8, ptr %0, i64 288
  tail call void @llvm.memset.p0.i64(ptr noundef nonnull align 8 dereferenceable(40) %4, i8 0, i64 40, i1 false)
  br label %5

5:                                                ; preds = %1, %2
  ret void
}